target datalayout = "e-m:e-p270:32:32-p271:32:32-p272:64:64-i64:64-i128:128-f80:128-n8:16:32:64-S128"
target triple = "x86_64-pc-linux-gnu"

%"class.perf::TestBase" = type { %"class.testing::Test", %"class.std::vector.3", %"class.std::vector.3", i32, %"class.std::vector.8", i64, i64, i64, i32, i32, i32, i32, i32, [4 x i8], %"struct.perf::performance_metrics", i8, %"class.perf::TestBase::_declareHelper" }
%"class.testing::Test" = type { ptr, %"class.testing::internal::scoped_ptr" }
%"class.testing::internal::scoped_ptr" = type { ptr }
%"class.std::vector.3" = type { %"struct.std::_Vector_base.4" }
%"struct.std::_Vector_base.4" = type { %"struct.std::_Vector_base<std::pair<int, cv::Size_<int>>, std::allocator<std::pair<int, cv::Size_<int>>>>::_Vector_impl" }
%"struct.std::_Vector_base<std::pair<int, cv::Size_<int>>, std::allocator<std::pair<int, cv::Size_<int>>>>::_Vector_impl" = type { %"struct.std::_Vector_base<std::pair<int, cv::Size_<int>>, std::allocator<std::pair<int, cv::Size_<int>>>>::_Vector_impl_data" }
%"struct.std::_Vector_base<std::pair<int, cv::Size_<int>>, std::allocator<std::pair<int, cv::Size_<int>>>>::_Vector_impl_data" = type { ptr, ptr, ptr }
%"class.std::vector.8" = type { %"struct.std::_Vector_base.9" }
%"struct.std::_Vector_base.9" = type { %"struct.std::_Vector_base<long, std::allocator<long>>::_Vector_impl" }
%"struct.std::_Vector_base<long, std::allocator<long>>::_Vector_impl" = type { %"struct.std::_Vector_base<long, std::allocator<long>>::_Vector_impl_data" }
%"struct.std::_Vector_base<long, std::allocator<long>>::_Vector_impl_data" = type { ptr, ptr, ptr }
%"struct.perf::performance_metrics" = type <{ i64, i64, i32, i32, double, double, double, double, double, double, double, i32, [4 x i8] }>
%"class.perf::TestBase::_declareHelper" = type { ptr }
%"class.__gnu_cxx::__normal_iterator.43" = type { ptr }

; Function Attrs: mustprogress nounwind uwtable
define linkonce_odr hidden noundef nonnull align 8 dereferenceable(8) ptr @_ZNK9__gnu_cxx17__normal_iteratorIPKlSt6vectorIlSaIlEEE4baseEv(ptr noundef nonnull align 8 dereferenceable(8) %0) #6 comdat align 2 {
  %2 = alloca ptr, align 8
  store ptr %0, ptr %2, align 8, !tbaa !245
  %3 = load ptr, ptr %2, align 8
  %4 = getelementptr inbounds nuw %"class.__gnu_cxx::__normal_iterator.43", ptr %3, i32 0, i32 0
  ret ptr %4
}

; Function Attrs: mustprogress nounwind uwtable
define linkonce_odr hidden void @_ZN9__gnu_cxx17__normal_iteratorIPKlSt6vectorIlSaIlEEEC2ERKS2_(ptr noundef nonnull align 8 dereferenceable(8) %0, ptr noundef nonnull align 8 dereferenceable(8) %1) unnamed_addr #6 comdat align 2 {
  %3 = alloca ptr, align 8
  %4 = alloca ptr, align 8
  store ptr %0, ptr %3, align 8, !tbaa !245
  store ptr %1, ptr %4, align 8, !tbaa !556
  %5 = load ptr, ptr %3, align 8
  %6 = getelementptr inbounds nuw %"class.__gnu_cxx::__normal_iterator.43", ptr %5, i32 0, i32 0
  %7 = load ptr, ptr %4, align 8, !tbaa !556
  %8 = load ptr, ptr %7, align 8, !tbaa !135
  store ptr %8, ptr %6, align 8, !tbaa !249
  ret void
}

; Function Attrs: inlinehint mustprogress nounwind uwtable
define linkonce_odr noundef zeroext i1 @_ZN9__gnu_cxxeqIPKlSt6vectorIlSaIlEEEEbRKNS_17__normal_iteratorIT_T0_EESB_(ptr noundef nonnull align 8 dereferenceable(8) %0, ptr noundef nonnull align 8 dereferenceable(8) %1) #4 comdat {
  %3 = alloca ptr, align 8
  %4 = alloca ptr, align 8
  store ptr %0, ptr %3, align 8, !tbaa !245
  store ptr %1, ptr %4, align 8, !tbaa !245
  %5 = load ptr, ptr %3, align 8, !tbaa !245
  %6 = call noundef nonnull align 8 dereferenceable(8) ptr @_ZNK9__gnu_cxx17__normal_iteratorIPKlSt6vectorIlSaIlEEE4baseEv(ptr noundef nonnull align 8 dereferenceable(8) %5) #3
  %7 = load ptr, ptr %6, align 8, !tbaa !135
  %8 = load ptr, ptr %4, align 8, !tbaa !245
  %9 = call noundef nonnull align 8 dereferenceable(8) ptr @_ZNK9__gnu_cxx17__normal_iteratorIPKlSt6vectorIlSaIlEEE4baseEv(ptr noundef nonnull align 8 dereferenceable(8) %8) #3
  %10 = load ptr, ptr %9, align 8, !tbaa !135
  %11 = icmp eq ptr %7, %10
  ret i1 %11
}

; Function Attrs: mustprogress nounwind uwtable
define linkonce_odr hidden ptr @_ZNKSt6vectorIlSaIlEE3endEv(ptr noundef nonnull align 8 dereferenceable(24) %0) #6 comdat align 2 {
  %2 = alloca %"class.__gnu_cxx::__normal_iterator.43", align 8
  %3 = alloca ptr, align 8
  store ptr %0, ptr %3, align 8, !tbaa !193
  %4 = load ptr, ptr %3, align 8
  %5 = getelementptr inbounds nuw %"struct.std::_Vector_base.9", ptr %4, i32 0, i32 0
  %6 = getelementptr inbounds nuw %"struct.std::_Vector_base<long, std::allocator<long>>::_Vector_impl_data", ptr %5, i32 0, i32 1
  call void @_ZN9__gnu_cxx17__normal_iteratorIPKlSt6vectorIlSaIlEEEC2ERKS2_(ptr noundef nonnull align 8 dereferenceable(8) %2, ptr noundef nonnull align 8 dereferenceable(8) %6) #3
  %7 = getelementptr inbounds nuw %"class.__gnu_cxx::__normal_iterator.43", ptr %2, i32 0, i32 0
  %8 = load ptr, ptr %7, align 8
  ret ptr %8
}

; Function Attrs: mustprogress nounwind uwtable
define linkonce_odr hidden ptr @_ZNKSt6vectorIlSaIlEE5beginEv(ptr noundef nonnull align 8 dereferenceable(24) %0) #6 comdat align 2 {
  %2 = alloca %"class.__gnu_cxx::__normal_iterator.43", align 8
  %3 = alloca ptr, align 8
  store ptr %0, ptr %3, align 8, !tbaa !193
  %4 = load ptr, ptr %3, align 8
  %5 = getelementptr inbounds nuw %"struct.std::_Vector_base.9", ptr %4, i32 0, i32 0
  %6 = getelementptr inbounds nuw %"struct.std::_Vector_base<long, std::allocator<long>>::_Vector_impl_data", ptr %5, i32 0, i32 0
  call void @_ZN9__gnu_cxx17__normal_iteratorIPKlSt6vectorIlSaIlEEEC2ERKS2_(ptr noundef nonnull align 8 dereferenceable(8) %2, ptr noundef nonnull align 8 dereferenceable(8) %6) #3
  %7 = getelementptr inbounds nuw %"class.__gnu_cxx::__normal_iterator.43", ptr %2, i32 0, i32 0
  %8 = load ptr, ptr %7, align 8
  ret ptr %8
}

; Function Attrs: mustprogress nounwind uwtable
define linkonce_odr hidden noundef zeroext i1 @_ZNKSt6vectorIlSaIlEE5emptyEv(ptr noundef nonnull align 8 dereferenceable(24) %0) #6 comdat align 2 {
  %2 = alloca ptr, align 8
  %3 = alloca %"class.__gnu_cxx::__normal_iterator.43", align 8
  %4 = alloca %"class.__gnu_cxx::__normal_iterator.43", align 8
  store ptr %0, ptr %2, align 8, !tbaa !193
  %5 = load ptr, ptr %2, align 8
  call void @llvm.lifetime.start.p0(i64 8, ptr %3) #3
  %6 = call ptr @_ZNKSt6vectorIlSaIlEE5beginEv(ptr noundef nonnull align 8 dereferenceable(24) %5) #3
  %7 = getelementptr inbounds nuw %"class.__gnu_cxx::__normal_iterator.43", ptr %3, i32 0, i32 0
  store ptr %6, ptr %7, align 8
  call void @llvm.lifetime.start.p0(i64 8, ptr %4) #3
  %8 = call ptr @_ZNKSt6vectorIlSaIlEE3endEv(ptr noundef nonnull align 8 dereferenceable(24) %5) #3
  %9 = getelementptr inbounds nuw %"class.__gnu_cxx::__normal_iterator.43", ptr %4, i32 0, i32 0
  store ptr %8, ptr %9, align 8
  %10 = call noundef zeroext i1 @_ZN9__gnu_cxxeqIPKlSt6vectorIlSaIlEEEEbRKNS_17__normal_iteratorIT_T0_EESB_(ptr noundef nonnull align 8 dereferenceable(8) %3, ptr noundef nonnull align 8 dereferenceable(8) %4) #3
  call void @llvm.lifetime.end.p0(i64 8, ptr %4) #3
  call void @llvm.lifetime.end.p0(i64 8, ptr %3) #3
  ret i1 %10
}

; Function Attrs: mustprogress uwtable
define hidden noundef nonnull align 8 dereferenceable(8) ptr @_ZN4perf8TestBase14_declareHelper2inERKN2cv17_InputOutputArrayES5_S5_S5_NS0_10WarmUpTypeE(ptr noundef nonnull align 8 dereferenceable(8) %0, ptr noundef nonnull align 8 dereferenceable(24) %1, ptr noundef nonnull align 8 dereferenceable(24) %2, ptr noundef nonnull align 8 dereferenceable(24) %3, ptr noundef nonnull align 8 dereferenceable(24) %4, i32 noundef %5) #7 align 2 {
  %7 = alloca ptr, align 8
  %8 = alloca ptr, align 8
  %9 = alloca ptr, align 8
  %10 = alloca ptr, align 8
  %11 = alloca ptr, align 8
  %12 = alloca ptr, align 8
  %13 = alloca i32, align 4
  store ptr %0, ptr %8, align 8, !tbaa !258
  store ptr %1, ptr %9, align 8, !tbaa !199
  store ptr %2, ptr %10, align 8, !tbaa !199
  store ptr %3, ptr %11, align 8, !tbaa !199
  store ptr %4, ptr %12, align 8, !tbaa !199
  store i32 %5, ptr %13, align 4, !tbaa !201
  %14 = load ptr, ptr %8, align 8
  %15 = getelementptr inbounds nuw %"class.perf::TestBase::_declareHelper", ptr %14, i32 0, i32 0
  %16 = load ptr, ptr %15, align 8, !tbaa !260
  %17 = getelementptr inbounds nuw %"class.perf::TestBase", ptr %16, i32 0, i32 4
  %18 = call noundef zeroext i1 @_ZNKSt6vectorIlSaIlEE5emptyEv(ptr noundef nonnull align 8 dereferenceable(24) %17) #3
  br i1 %18, label %20, label %19

19:                                               ; preds = %6
  store ptr %14, ptr %7, align 8
  br label %41

20:                                               ; preds = %6
  %21 = getelementptr inbounds nuw %"class.perf::TestBase::_declareHelper", ptr %14, i32 0, i32 0
  %22 = load ptr, ptr %21, align 8, !tbaa !260
  %23 = getelementptr inbounds nuw %"class.perf::TestBase", ptr %22, i32 0, i32 1
  %24 = load ptr, ptr %9, align 8, !tbaa !199
  %25 = load i32, ptr %13, align 4, !tbaa !201
  call void @_ZN4perf8TestBase12declareArrayERSt6vectorISt4pairIiN2cv5Size_IiEEESaIS6_EERKNS3_17_InputOutputArrayENS0_10WarmUpTypeE(ptr noundef nonnull align 8 dereferenceable(24) %23, ptr noundef nonnull align 8 dereferenceable(24) %24, i32 noundef %25)
  %26 = getelementptr inbounds nuw %"class.perf::TestBase::_declareHelper", ptr %14, i32 0, i32 0
  %27 = load ptr, ptr %26, align 8, !tbaa !260
  %28 = getelementptr inbounds nuw %"class.perf::TestBase", ptr %27, i32 0, i32 1
  %29 = load ptr, ptr %10, align 8, !tbaa !199
  %30 = load i32, ptr %13, align 4, !tbaa !201
  call void @_ZN4perf8TestBase12declareArrayERSt6vectorISt4pairIiN2cv5Size_IiEEESaIS6_EERKNS3_17_InputOutputArrayENS0_10WarmUpTypeE(ptr noundef nonnull align 8 dereferenceable(24) %28, ptr noundef nonnull align 8 dereferenceable(24) %29, i32 noundef %30)
  %31 = getelementptr inbounds nuw %"class.perf::TestBase::_declareHelper", ptr %14, i32 0, i32 0
  %32 = load ptr, ptr %31, align 8, !tbaa !260
  %33 = getelementptr inbounds nuw %"class.perf::TestBase", ptr %32, i32 0, i32 1
  %34 = load ptr, ptr %11, align 8, !tbaa !199
  %35 = load i32, ptr %13, align 4, !tbaa !201
  call void @_ZN4perf8TestBase12declareArrayERSt6vectorISt4pairIiN2cv5Size_IiEEESaIS6_EERKNS3_17_InputOutputArrayENS0_10WarmUpTypeE(ptr noundef nonnull align 8 dereferenceable(24) %33, ptr noundef nonnull align 8 dereferenceable(24) %34, i32 noundef %35)
  %36 = getelementptr inbounds nuw %"class.perf::TestBase::_declareHelper", ptr %14, i32 0, i32 0
  %37 = load ptr, ptr %36, align 8, !tbaa !260
  %38 = getelementptr inbounds nuw %"class.perf::TestBase", ptr %37, i32 0, i32 1
  %39 = load ptr, ptr %12, align 8, !tbaa !199
  %40 = load i32, ptr %13, align 4, !tbaa !201
  call void @_ZN4perf8TestBase12declareArrayERSt6vectorISt4pairIiN2cv5Size_IiEEESaIS6_EERKNS3_17_InputOutputArrayENS0_10WarmUpTypeE(ptr noundef nonnull align 8 dereferenceable(24) %38, ptr noundef nonnull align 8 dereferenceable(24) %39, i32 noundef %40)
  store ptr %14, ptr %7, align 8
  br label %41

41:                                               ; preds = %20, %19
  %42 = load ptr, ptr %7, align 8
  ret ptr %42
}